target datalayout = "e-m:e-p270:32:32-p271:32:32-p272:64:64-i64:64-i128:128-f80:128-n8:16:32:64-S128"
target triple = "x86_64-unknown-linux-gnu"

%"class.std::basic_istream" = type { ptr, i64, %"class.std::basic_ios" }
%"class.std::basic_ios" = type { %"class.std::ios_base", ptr, i8, i8, ptr, ptr, ptr, ptr }
%"class.std::ios_base" = type { ptr, i64, i64, i32, i32, i32, ptr, %"struct.std::ios_base::_Words", [8 x %"struct.std::ios_base::_Words"], i32, ptr, %"class.std::locale" }
%"struct.std::ios_base::_Words" = type { ptr, i64 }
%"class.std::locale" = type { ptr }
%"class.std::basic_ostream" = type { ptr, %"class.std::basic_ios" }
%class.veloxtpFlexLexer = type <{ %class.FlexLexer.base, i32, i32, [4 x i8], ptr, %"class.std::basic_istream", %"class.std::basic_ostream", i8, [3 x i8], i32, ptr, i32, i32, i32, [4 x i8], i64, i64, ptr, i32, [4 x i8], ptr, ptr, ptr, ptr, ptr, i32, i32, i32, i32, i32, i32, i32, [4 x i8] }>
%class.FlexLexer.base = type <{ ptr, ptr, i32, i32, i32 }>
%class.FlexLexer = type <{ ptr, ptr, i32, i32, i32, [4 x i8] }>
%struct.yy_buffer_state = type { ptr, ptr, ptr, i32, i32, i32, i32, i32, i32, i32, i32, i32 }

@.str.8 = private unnamed_addr constant [49 x i8] c"out of dynamic memory in yyensure_buffer_stack()\00", align 1

; Function Attrs: mustprogress nounwind uwtable
define noundef ptr @_Z14veloxtpreallocPvm(ptr noundef %ptr, i64 noundef %size) #4 {
entry:
  %ptr.addr = alloca ptr, align 8
  %size.addr = alloca i64, align 8
  store ptr %ptr, ptr %ptr.addr, align 8
  store i64 %size, ptr %size.addr, align 8
  %0 = load ptr, ptr %ptr.addr, align 8
  %1 = load i64, ptr %size.addr, align 8
  %call = call ptr @realloc(ptr noundef %0, i64 noundef %1) #22
  ret ptr %call
}

; Function Attrs: mustprogress nounwind uwtable
define noundef ptr @_Z12veloxtpallocm(i64 noundef %size) #4 {
entry:
  %size.addr = alloca i64, align 8
  store i64 %size, ptr %size.addr, align 8
  %0 = load i64, ptr %size.addr, align 8
  %call = call noalias ptr @malloc(i64 noundef %0) #24
  ret ptr %call
}

; Function Attrs: mustprogress uwtable
define void @_ZN16veloxtpFlexLexer20yy_load_buffer_stateEv(ptr noundef nonnull align 8 dereferenceable(732) %this) #5 align 2 {
entry:
  %this.addr = alloca ptr, align 8
  store ptr %this, ptr %this.addr, align 8
  %this1 = load ptr, ptr %this.addr, align 8
  %yy_buffer_stack = getelementptr inbounds %class.veloxtpFlexLexer, ptr %this1, i32 0, i32 17
  %0 = load ptr, ptr %yy_buffer_stack, align 8
  %yy_buffer_stack_top = getelementptr inbounds %class.veloxtpFlexLexer, ptr %this1, i32 0, i32 15
  %1 = load i64, ptr %yy_buffer_stack_top, align 8
  %arrayidx = getelementptr inbounds ptr, ptr %0, i64 %1
  %2 = load ptr, ptr %arrayidx, align 8
  %yy_n_chars = getelementptr inbounds %struct.yy_buffer_state, ptr %2, i32 0, i32 4
  %3 = load i32, ptr %yy_n_chars, align 4
  %yy_n_chars2 = getelementptr inbounds %class.veloxtpFlexLexer, ptr %this1, i32 0, i32 9
  store i32 %3, ptr %yy_n_chars2, align 4
  %yy_buffer_stack3 = getelementptr inbounds %class.veloxtpFlexLexer, ptr %this1, i32 0, i32 17
  %4 = load ptr, ptr %yy_buffer_stack3, align 8
  %yy_buffer_stack_top4 = getelementptr inbounds %class.veloxtpFlexLexer, ptr %this1, i32 0, i32 15
  %5 = load i64, ptr %yy_buffer_stack_top4, align 8
  %arrayidx5 = getelementptr inbounds ptr, ptr %4, i64 %5
  %6 = load ptr, ptr %arrayidx5, align 8
  %yy_buf_pos = getelementptr inbounds %struct.yy_buffer_state, ptr %6, i32 0, i32 2
  %7 = load ptr, ptr %yy_buf_pos, align 8
  %yy_c_buf_p = getelementptr inbounds %class.veloxtpFlexLexer, ptr %this1, i32 0, i32 10
  store ptr %7, ptr %yy_c_buf_p, align 8
  %yytext = getelementptr inbounds %class.FlexLexer, ptr %this1, i32 0, i32 1
  store ptr %7, ptr %yytext, align 8
  %yyin = getelementptr inbounds %class.veloxtpFlexLexer, ptr %this1, i32 0, i32 5
  %vtable = load ptr, ptr %yyin, align 8
  %vbase.offset.ptr = getelementptr i8, ptr %vtable, i64 -24
  %vbase.offset = load i64, ptr %vbase.offset.ptr, align 8
  %add.ptr = getelementptr inbounds i8, ptr %yyin, i64 %vbase.offset
  %yy_buffer_stack6 = getelementptr inbounds %class.veloxtpFlexLexer, ptr %this1, i32 0, i32 17
  %8 = load ptr, ptr %yy_buffer_stack6, align 8
  %yy_buffer_stack_top7 = getelementptr inbounds %class.veloxtpFlexLexer, ptr %this1, i32 0, i32 15
  %9 = load i64, ptr %yy_buffer_stack_top7, align 8
  %arrayidx8 = getelementptr inbounds ptr, ptr %8, i64 %9
  %10 = load ptr, ptr %arrayidx8, align 8
  %yy_input_file = getelementptr inbounds %struct.yy_buffer_state, ptr %10, i32 0, i32 0
  %11 = load ptr, ptr %yy_input_file, align 8
  %call = call noundef ptr @_ZNSt9basic_iosIcSt11char_traitsIcEE5rdbufEPSt15basic_streambufIcS1_E(ptr noundef nonnull align 8 dereferenceable(264) %add.ptr, ptr noundef %11)
  %yy_c_buf_p9 = getelementptr inbounds %class.veloxtpFlexLexer, ptr %this1, i32 0, i32 10
  %12 = load ptr, ptr %yy_c_buf_p9, align 8
  %13 = load i8, ptr %12, align 1
  %yy_hold_char = getelementptr inbounds %class.veloxtpFlexLexer, ptr %this1, i32 0, i32 7
  store i8 %13, ptr %yy_hold_char, align 8
  ret void
}

; Function Attrs: mustprogress uwtable
define void @_ZN16veloxtpFlexLexer21yyensure_buffer_stackEv(ptr noundef nonnull align 8 dereferenceable(732) %this) #5 align 2 {
entry:
  %this.addr = alloca ptr, align 8
  %num_to_alloc = alloca i64, align 8
  %grow_size = alloca i64, align 8
  store ptr %this, ptr %this.addr, align 8
  %this1 = load ptr, ptr %this.addr, align 8
  %yy_buffer_stack = getelementptr inbounds %class.veloxtpFlexLexer, ptr %this1, i32 0, i32 17
  %0 = load ptr, ptr %yy_buffer_stack, align 8
  %tobool = icmp ne ptr %0, null
  br i1 %tobool, label %if.end8, label %if.then

if.then:                                          ; preds = %entry
  store i64 1, ptr %num_to_alloc, align 8
  %1 = load i64, ptr %num_to_alloc, align 8
  %mul = mul i64 %1, 8
  %call = call noundef ptr @_Z12veloxtpallocm(i64 noundef %mul)
  %yy_buffer_stack2 = getelementptr inbounds %class.veloxtpFlexLexer, ptr %this1, i32 0, i32 17
  store ptr %call, ptr %yy_buffer_stack2, align 8
  %yy_buffer_stack3 = getelementptr inbounds %class.veloxtpFlexLexer, ptr %this1, i32 0, i32 17
  %2 = load ptr, ptr %yy_buffer_stack3, align 8
  %tobool4 = icmp ne ptr %2, null
  br i1 %tobool4, label %if.end, label %if.then5

if.then5:                                         ; preds = %if.then
  %vtable = load ptr, ptr %this1, align 8
  %vfn = getelementptr inbounds ptr, ptr %vtable, i64 14
  %3 = load ptr, ptr %vfn, align 8
  call void %3(ptr noundef nonnull align 8 dereferenceable(732) %this1, ptr noundef @.str.8)
  br label %if.end

if.end:                                           ; preds = %if.then5, %if.then
  %yy_buffer_stack6 = getelementptr inbounds %class.veloxtpFlexLexer, ptr %this1, i32 0, i32 17
  %4 = load ptr, ptr %yy_buffer_stack6, align 8
  %5 = load i64, ptr %num_to_alloc, align 8
  %mul7 = mul i64 %5, 8
  call void @llvm.memset.p0.i64(ptr align 8 %4, i8 0, i64 %mul7, i1 false)
  %6 = load i64, ptr %num_to_alloc, align 8
  %yy_buffer_stack_max = getelementptr inbounds %class.veloxtpFlexLexer, ptr %this1, i32 0, i32 16
  store i64 %6, ptr %yy_buffer_stack_max, align 8
  %yy_buffer_stack_top = getelementptr inbounds %class.veloxtpFlexLexer, ptr %this1, i32 0, i32 15
  store i64 0, ptr %yy_buffer_stack_top, align 8
  br label %if.end27

if.end8:                                          ; preds = %entry
  %yy_buffer_stack_top9 = getelementptr inbounds %class.veloxtpFlexLexer, ptr %this1, i32 0, i32 15
  %7 = load i64, ptr %yy_buffer_stack_top9, align 8
  %yy_buffer_stack_max10 = getelementptr inbounds %class.veloxtpFlexLexer, ptr %this1, i32 0, i32 16
  %8 = load i64, ptr %yy_buffer_stack_max10, align 8
  %sub = sub i64 %8, 1
  %cmp = icmp uge i64 %7, %sub
  br i1 %cmp, label %if.then11, label %if.end27

if.then11:                                        ; preds = %if.end8
  store i64 8, ptr %grow_size, align 8
  %yy_buffer_stack_max12 = getelementptr inbounds %class.veloxtpFlexLexer, ptr %this1, i32 0, i32 16
  %9 = load i64, ptr %yy_buffer_stack_max12, align 8
  %10 = load i64, ptr %grow_size, align 8
  %add = add i64 %9, %10
  store i64 %add, ptr %num_to_alloc, align 8
  %yy_buffer_stack13 = getelementptr inbounds %class.veloxtpFlexLexer, ptr %this1, i32 0, i32 17
  %11 = load ptr, ptr %yy_buffer_stack13, align 8
  %12 = load i64, ptr %num_to_alloc, align 8
  %mul14 = mul i64 %12, 8
  %call15 = call noundef ptr @_Z14veloxtpreallocPvm(ptr noundef %11, i64 noundef %mul14)
  %yy_buffer_stack16 = getelementptr inbounds %class.veloxtpFlexLexer, ptr %this1, i32 0, i32 17
  store ptr %call15, ptr %yy_buffer_stack16, align 8
  %yy_buffer_stack17 = getelementptr inbounds %class.veloxtpFlexLexer, ptr %this1, i32 0, i32 17
  %13 = load ptr, ptr %yy_buffer_stack17, align 8
  %tobool18 = icmp ne ptr %13, null
  br i1 %tobool18, label %if.end22, label %if.then19

if.then19:                                        ; preds = %if.then11
  %vtable20 = load ptr, ptr %this1, align 8
  %vfn21 = getelementptr inbounds ptr, ptr %vtable20, i64 14
  %14 = load ptr, ptr %vfn21, align 8
  call void %14(ptr noundef nonnull align 8 dereferenceable(732) %this1, ptr noundef @.str.8)
  br label %if.end22

if.end22:                                         ; preds = %if.then19, %if.then11
  %yy_buffer_stack23 = getelementptr inbounds %class.veloxtpFlexLexer, ptr %this1, i32 0, i32 17
  %15 = load ptr, ptr %yy_buffer_stack23, align 8
  %yy_buffer_stack_max24 = getelementptr inbounds %class.veloxtpFlexLexer, ptr %this1, i32 0, i32 16
  %16 = load i64, ptr %yy_buffer_stack_max24, align 8
  %add.ptr = getelementptr inbounds ptr, ptr %15, i64 %16
  %17 = load i64, ptr %grow_size, align 8
  %mul25 = mul i64 %17, 8
  call void @llvm.memset.p0.i64(ptr align 8 %add.ptr, i8 0, i64 %mul25, i1 false)
  %18 = load i64, ptr %num_to_alloc, align 8
  %yy_buffer_stack_max26 = getelementptr inbounds %class.veloxtpFlexLexer, ptr %this1, i32 0, i32 16
  store i64 %18, ptr %yy_buffer_stack_max26, align 8
  br label %if.end27

if.end27:                                         ; preds = %if.end22, %if.end8, %if.end
  ret void
}

; Function Attrs: mustprogress uwtable
define void @_ZN16veloxtpFlexLexer19yypush_buffer_stateEP15yy_buffer_state(ptr noundef nonnull align 8 dereferenceable(732) %this, ptr noundef %new_buffer) #5 align 2 {
entry:
  %this.addr = alloca ptr, align 8
  %new_buffer.addr = alloca ptr, align 8
  store ptr %this, ptr %this.addr, align 8
  store ptr %new_buffer, ptr %new_buffer.addr, align 8
  %this1 = load ptr, ptr %this.addr, align 8
  %0 = load ptr, ptr %new_buffer.addr, align 8
  %cmp = icmp eq ptr %0, null
  br i1 %cmp, label %if.then, label %if.end

if.then:                                          ; preds = %entry
  br label %return

if.end:                                           ; preds = %entry
  call void @_ZN16veloxtpFlexLexer21yyensure_buffer_stackEv(ptr noundef nonnull align 8 dereferenceable(732) %this1)
  %yy_buffer_stack = getelementptr inbounds %class.veloxtpFlexLexer, ptr %this1, i32 0, i32 17
  %1 = load ptr, ptr %yy_buffer_stack, align 8
  %tobool = icmp ne ptr %1, null
  br i1 %tobool, label %cond.true, label %cond.false

cond.true:                                        ; preds = %if.end
  %yy_buffer_stack2 = getelementptr inbounds %class.veloxtpFlexLexer, ptr %this1, i32 0, i32 17
  %2 = load ptr, ptr %yy_buffer_stack2, align 8
  %yy_buffer_stack_top = getelementptr inbounds %class.veloxtpFlexLexer, ptr %this1, i32 0, i32 15
  %3 = load i64, ptr %yy_buffer_stack_top, align 8
  %arrayidx = getelementptr inbounds ptr, ptr %2, i64 %3
  %4 = load ptr, ptr %arrayidx, align 8
  br label %cond.end

cond.false:                                       ; preds = %if.end
  br label %cond.end

cond.end:                                         ; preds = %cond.false, %cond.true
  %cond = phi ptr [ %4, %cond.true ], [ null, %cond.false ]
  %tobool3 = icmp ne ptr %cond, null
  br i1 %tobool3, label %if.then4, label %if.end13

if.then4:                                         ; preds = %cond.end
  %yy_hold_char = getelementptr inbounds %class.veloxtpFlexLexer, ptr %this1, i32 0, i32 7
  %5 = load i8, ptr %yy_hold_char, align 8
  %yy_c_buf_p = getelementptr inbounds %class.veloxtpFlexLexer, ptr %this1, i32 0, i32 10
  %6 = load ptr, ptr %yy_c_buf_p, align 8
  store i8 %5, ptr %6, align 1
  %yy_c_buf_p5 = getelementptr inbounds %class.veloxtpFlexLexer, ptr %this1, i32 0, i32 10
  %7 = load ptr, ptr %yy_c_buf_p5, align 8
  %yy_buffer_stack6 = getelementptr inbounds %class.veloxtpFlexLexer, ptr %this1, i32 0, i32 17
  %8 = load ptr, ptr %yy_buffer_stack6, align 8
  %yy_buffer_stack_top7 = getelementptr inbounds %class.veloxtpFlexLexer, ptr %this1, i32 0, i32 15
  %9 = load i64, ptr %yy_buffer_stack_top7, align 8
  %arrayidx8 = getelementptr inbounds ptr, ptr %8, i64 %9
  %10 = load ptr, ptr %arrayidx8, align 8
  %yy_buf_pos = getelementptr inbounds %struct.yy_buffer_state, ptr %10, i32 0, i32 2
  store ptr %7, ptr %yy_buf_pos, align 8
  %yy_n_chars = getelementptr inbounds %class.veloxtpFlexLexer, ptr %this1, i32 0, i32 9
  %11 = load i32, ptr %yy_n_chars, align 4
  %yy_buffer_stack9 = getelementptr inbounds %class.veloxtpFlexLexer, ptr %this1, i32 0, i32 17
  %12 = load ptr, ptr %yy_buffer_stack9, align 8
  %yy_buffer_stack_top10 = getelementptr inbounds %class.veloxtpFlexLexer, ptr %this1, i32 0, i32 15
  %13 = load i64, ptr %yy_buffer_stack_top10, align 8
  %arrayidx11 = getelementptr inbounds ptr, ptr %12, i64 %13
  %14 = load ptr, ptr %arrayidx11, align 8
  %yy_n_chars12 = getelementptr inbounds %struct.yy_buffer_state, ptr %14, i32 0, i32 4
  store i32 %11, ptr %yy_n_chars12, align 4
  br label %if.end13

if.end13:                                         ; preds = %if.then4, %cond.end
  %yy_buffer_stack14 = getelementptr inbounds %class.veloxtpFlexLexer, ptr %this1, i32 0, i32 17
  %15 = load ptr, ptr %yy_buffer_stack14, align 8
  %tobool15 = icmp ne ptr %15, null
  br i1 %tobool15, label %cond.true16, label %cond.false20

cond.true16:                                      ; preds = %if.end13
  %yy_buffer_stack17 = getelementptr inbounds %class.veloxtpFlexLexer, ptr %this1, i32 0, i32 17
  %16 = load ptr, ptr %yy_buffer_stack17, align 8
  %yy_buffer_stack_top18 = getelementptr inbounds %class.veloxtpFlexLexer, ptr %this1, i32 0, i32 15
  %17 = load i64, ptr %yy_buffer_stack_top18, align 8
  %arrayidx19 = getelementptr inbounds ptr, ptr %16, i64 %17
  %18 = load ptr, ptr %arrayidx19, align 8
  br label %cond.end21

cond.false20:                                     ; preds = %if.end13
  br label %cond.end21

cond.end21:                                       ; preds = %cond.false20, %cond.true16
  %cond22 = phi ptr [ %18, %cond.true16 ], [ null, %cond.false20 ]
  %tobool23 = icmp ne ptr %cond22, null
  br i1 %tobool23, label %if.then24, label %if.end26

if.then24:                                        ; preds = %cond.end21
  %yy_buffer_stack_top25 = getelementptr inbounds %class.veloxtpFlexLexer, ptr %this1, i32 0, i32 15
  %19 = load i64, ptr %yy_buffer_stack_top25, align 8
  %inc = add i64 %19, 1
  store i64 %inc, ptr %yy_buffer_stack_top25, align 8
  br label %if.end26

if.end26:                                         ; preds = %if.then24, %cond.end21
  %20 = load ptr, ptr %new_buffer.addr, align 8
  %yy_buffer_stack27 = getelementptr inbounds %class.veloxtpFlexLexer, ptr %this1, i32 0, i32 17
  %21 = load ptr, ptr %yy_buffer_stack27, align 8
  %yy_buffer_stack_top28 = getelementptr inbounds %class.veloxtpFlexLexer, ptr %this1, i32 0, i32 15
  %22 = load i64, ptr %yy_buffer_stack_top28, align 8
  %arrayidx29 = getelementptr inbounds ptr, ptr %21, i64 %22
  store ptr %20, ptr %arrayidx29, align 8
  call void @_ZN16veloxtpFlexLexer20yy_load_buffer_stateEv(ptr noundef nonnull align 8 dereferenceable(732) %this1)
  %yy_did_buffer_switch_on_eof = getelementptr inbounds %class.veloxtpFlexLexer, ptr %this1, i32 0, i32 13
  store i32 1, ptr %yy_did_buffer_switch_on_eof, align 8
  br label %return

return:                                           ; preds = %if.end26, %if.then
  ret void
}