; Function Attrs: mustprogress uwtable
define void @_ZN16veloxtpFlexLexer19yypush_buffer_stateEP15yy_buffer_state(ptr noundef nonnull align 8 dereferenceable(732) %this, ptr noundef %new_buffer) local_unnamed_addr #4 align 2 {
entry:
  %cmp = icmp eq ptr %new_buffer, null
  br i1 %cmp, label %return, label %if.end

if.end:                                           ; preds = %entry
  %yy_buffer_stack.i = getelementptr inbounds i8, ptr %this, i64 648
  %0 = load ptr, ptr %yy_buffer_stack.i, align 8
  %tobool.not.i = icmp eq ptr %0, null
  br i1 %tobool.not.i, label %if.then.i, label %if.end8.i

if.then.i:                                        ; preds = %if.end
  %call.i.i = tail call noalias noundef dereferenceable_or_null(8) ptr @malloc(i64 noundef 8) #32
  store ptr %call.i.i, ptr %yy_buffer_stack.i, align 8
  %tobool4.not.i = icmp eq ptr %call.i.i, null
  br i1 %tobool4.not.i, label %if.then5.i, label %if.end.i

if.then5.i:                                       ; preds = %if.then.i
  %vtable.i = load ptr, ptr %this, align 8
  %vfn.i = getelementptr inbounds i8, ptr %vtable.i, i64 112
  %1 = load ptr, ptr %vfn.i, align 8
  tail call void %1(ptr noundef nonnull align 8 dereferenceable(732) %this, ptr noundef nonnull @.str.8)
  %.pre7.i = load ptr, ptr %yy_buffer_stack.i, align 8
  br label %if.end.i

if.end.i:                                         ; preds = %if.then5.i, %if.then.i
  %2 = phi ptr [ %.pre7.i, %if.then5.i ], [ %call.i.i, %if.then.i ]
  store i64 0, ptr %2, align 8
  %yy_buffer_stack_max.i = getelementptr inbounds i8, ptr %this, i64 640
  store i64 1, ptr %yy_buffer_stack_max.i, align 8
  %yy_buffer_stack_top.i = getelementptr inbounds i8, ptr %this, i64 632
  store i64 0, ptr %yy_buffer_stack_top.i, align 8
  br label %_ZN16veloxtpFlexLexer21yyensure_buffer_stackEv.exit

if.end8.i:                                        ; preds = %if.end
  %yy_buffer_stack_top9.i = getelementptr inbounds i8, ptr %this, i64 632
  %3 = load i64, ptr %yy_buffer_stack_top9.i, align 8
  %yy_buffer_stack_max10.i = getelementptr inbounds i8, ptr %this, i64 640
  %4 = load i64, ptr %yy_buffer_stack_max10.i, align 8
  %sub.i = add i64 %4, -1
  %cmp.not.i = icmp ult i64 %3, %sub.i
  br i1 %cmp.not.i, label %_ZN16veloxtpFlexLexer21yyensure_buffer_stackEv.exit, label %if.then11.i

if.then11.i:                                      ; preds = %if.end8.i
  %add.i = add i64 %4, 8
  %mul14.i = shl i64 %add.i, 3
  %call.i6.i = tail call noalias noundef ptr @realloc(ptr noundef nonnull %0, i64 noundef %mul14.i) #33
  store ptr %call.i6.i, ptr %yy_buffer_stack.i, align 8
  %tobool18.not.i = icmp eq ptr %call.i6.i, null
  br i1 %tobool18.not.i, label %if.then19.i, label %if.end22.i

if.then19.i:                                      ; preds = %if.then11.i
  %vtable20.i = load ptr, ptr %this, align 8
  %vfn21.i = getelementptr inbounds i8, ptr %vtable20.i, i64 112
  %5 = load ptr, ptr %vfn21.i, align 8
  tail call void %5(ptr noundef nonnull align 8 dereferenceable(732) %this, ptr noundef nonnull @.str.8)
  %.pre.i = load ptr, ptr %yy_buffer_stack.i, align 8
  br label %if.end22.i

if.end22.i:                                       ; preds = %if.then19.i, %if.then11.i
  %6 = phi ptr [ %.pre.i, %if.then19.i ], [ %call.i6.i, %if.then11.i ]
  %7 = load i64, ptr %yy_buffer_stack_max10.i, align 8
  %add.ptr.i = getelementptr inbounds ptr, ptr %6, i64 %7
  tail call void @llvm.memset.p0.i64(ptr noundef nonnull align 8 dereferenceable(64) %add.ptr.i, i8 0, i64 64, i1 false)
  store i64 %add.i, ptr %yy_buffer_stack_max10.i, align 8
  %.pre = load i64, ptr %yy_buffer_stack_top9.i, align 8
  br label %_ZN16veloxtpFlexLexer21yyensure_buffer_stackEv.exit

_ZN16veloxtpFlexLexer21yyensure_buffer_stackEv.exit: ; preds = %if.end.i, %if.end8.i, %if.end22.i
  %8 = phi i64 [ 0, %if.end.i ], [ %3, %if.end8.i ], [ %.pre, %if.end22.i ]
  %9 = load ptr, ptr %yy_buffer_stack.i, align 8, !nonnull !26, !noundef !26
  %yy_buffer_stack_top = getelementptr inbounds i8, ptr %this, i64 632
  %arrayidx = getelementptr inbounds ptr, ptr %9, i64 %8
  %10 = load ptr, ptr %arrayidx, align 8
  %11 = icmp eq ptr %10, null
  br i1 %11, label %if.end26, label %if.end13

if.end13:                                         ; preds = %_ZN16veloxtpFlexLexer21yyensure_buffer_stackEv.exit
  %yy_hold_char = getelementptr inbounds i8, ptr %this, i64 600
  %12 = load i8, ptr %yy_hold_char, align 8
  %yy_c_buf_p = getelementptr inbounds i8, ptr %this, i64 608
  %13 = load ptr, ptr %yy_c_buf_p, align 8
  store i8 %12, ptr %13, align 1
  %14 = load ptr, ptr %yy_c_buf_p, align 8
  %15 = load ptr, ptr %yy_buffer_stack.i, align 8
  %16 = load i64, ptr %yy_buffer_stack_top, align 8
  %arrayidx8 = getelementptr inbounds ptr, ptr %15, i64 %16
  %17 = load ptr, ptr %arrayidx8, align 8
  %yy_buf_pos = getelementptr inbounds i8, ptr %17, i64 16
  store ptr %14, ptr %yy_buf_pos, align 8
  %yy_n_chars = getelementptr inbounds i8, ptr %this, i64 604
  %18 = load i32, ptr %yy_n_chars, align 4
  %19 = load ptr, ptr %yy_buffer_stack.i, align 8
  %20 = load i64, ptr %yy_buffer_stack_top, align 8
  %arrayidx11 = getelementptr inbounds ptr, ptr %19, i64 %20
  %21 = load ptr, ptr %arrayidx11, align 8
  %yy_n_chars12 = getelementptr inbounds i8, ptr %21, i64 28
  store i32 %18, ptr %yy_n_chars12, align 4
  %.pr.pre = load ptr, ptr %yy_buffer_stack.i, align 8
  %.pre9 = load i64, ptr %yy_buffer_stack_top, align 8
  %arrayidx19.phi.trans.insert = getelementptr inbounds ptr, ptr %.pr.pre, i64 %.pre9
  %.pre10 = load ptr, ptr %arrayidx19.phi.trans.insert, align 8
  %22 = icmp eq ptr %.pre10, null
  br i1 %22, label %if.end26, label %if.then24

if.then24:                                        ; preds = %if.end13
  %inc = add i64 %.pre9, 1
  store i64 %inc, ptr %yy_buffer_stack_top, align 8
  br label %if.end26

if.end26:                                         ; preds = %_ZN16veloxtpFlexLexer21yyensure_buffer_stackEv.exit, %if.then24, %if.end13
  %.pr12 = phi ptr [ %.pr.pre, %if.then24 ], [ %.pr.pre, %if.end13 ], [ %9, %_ZN16veloxtpFlexLexer21yyensure_buffer_stackEv.exit ]
  %23 = phi i64 [ %inc, %if.then24 ], [ %.pre9, %if.end13 ], [ %8, %_ZN16veloxtpFlexLexer21yyensure_buffer_stackEv.exit ]
  %arrayidx29 = getelementptr inbounds ptr, ptr %.pr12, i64 %23
  store ptr %new_buffer, ptr %arrayidx29, align 8
  %24 = load ptr, ptr %yy_buffer_stack.i, align 8
  %25 = load i64, ptr %yy_buffer_stack_top, align 8
  %arrayidx.i = getelementptr inbounds ptr, ptr %24, i64 %25
  %26 = load ptr, ptr %arrayidx.i, align 8
  %yy_n_chars.i = getelementptr inbounds i8, ptr %26, i64 28
  %27 = load i32, ptr %yy_n_chars.i, align 4
  %yy_n_chars2.i = getelementptr inbounds i8, ptr %this, i64 604
  store i32 %27, ptr %yy_n_chars2.i, align 4
  %28 = load ptr, ptr %arrayidx.i, align 8
  %yy_buf_pos.i = getelementptr inbounds i8, ptr %28, i64 16
  %29 = load ptr, ptr %yy_buf_pos.i, align 8
  %yy_c_buf_p.i = getelementptr inbounds i8, ptr %this, i64 608
  store ptr %29, ptr %yy_c_buf_p.i, align 8
  %yytext.i = getelementptr inbounds i8, ptr %this, i64 8
  store ptr %29, ptr %yytext.i, align 8
  %yyin.i = getelementptr inbounds i8, ptr %this, i64 48
  %vtable.i5 = load ptr, ptr %yyin.i, align 8
  %vbase.offset.ptr.i = getelementptr i8, ptr %vtable.i5, i64 -24
  %vbase.offset.i = load i64, ptr %vbase.offset.ptr.i, align 8
  %add.ptr.i6 = getelementptr inbounds i8, ptr %yyin.i, i64 %vbase.offset.i
  %30 = load ptr, ptr %arrayidx.i, align 8
  %31 = load ptr, ptr %30, align 8
  %call.i = tail call noundef ptr @_ZNSt9basic_iosIcSt11char_traitsIcEE5rdbufEPSt15basic_streambufIcS1_E(ptr noundef nonnull align 8 dereferenceable(264) %add.ptr.i6, ptr noundef %31)
  %32 = load ptr, ptr %yy_c_buf_p.i, align 8
  %33 = load i8, ptr %32, align 1
  %yy_hold_char.i = getelementptr inbounds i8, ptr %this, i64 600
  store i8 %33, ptr %yy_hold_char.i, align 8
  %yy_did_buffer_switch_on_eof = getelementptr inbounds i8, ptr %this, i64 624
  store i32 1, ptr %yy_did_buffer_switch_on_eof, align 8
  br label %return

return:                                           ; preds = %entry, %if.end26
  ret void
}